target datalayout = "e-m:e-p270:32:32-p271:32:32-p272:64:64-i64:64-i128:128-f80:128-n8:16:32:64-S128"
target triple = "x86_64-pc-linux-gnu"

; Function Attrs: nounwind uwtable
define internal void @vert_left_4x4_c(ptr noundef %0, i64 noundef %1, ptr noundef %2, ptr noundef %3) #1 {
  %5 = alloca ptr, align 8
  %6 = alloca i64, align 8
  %7 = alloca ptr, align 8
  %8 = alloca ptr, align 8
  %9 = alloca ptr, align 8
  %10 = alloca ptr, align 8
  %11 = alloca i32, align 4
  %12 = alloca i32, align 4
  %13 = alloca i32, align 4
  %14 = alloca i32, align 4
  %15 = alloca i32, align 4
  %16 = alloca i32, align 4
  %17 = alloca i32, align 4
  store ptr %0, ptr %5, align 8, !tbaa !10
  store i64 %1, ptr %6, align 8, !tbaa !12
  store ptr %2, ptr %7, align 8, !tbaa !10
  store ptr %3, ptr %8, align 8, !tbaa !10
  call void @llvm.lifetime.start.p0(i64 8, ptr %9) #10
  %18 = load ptr, ptr %5, align 8, !tbaa !10
  store ptr %18, ptr %9, align 8, !tbaa !10
  call void @llvm.lifetime.start.p0(i64 8, ptr %10) #10
  %19 = load ptr, ptr %8, align 8, !tbaa !10
  store ptr %19, ptr %10, align 8, !tbaa !10
  call void @llvm.lifetime.start.p0(i64 4, ptr %11) #10
  %20 = load ptr, ptr %10, align 8, !tbaa !10
  %21 = getelementptr inbounds i8, ptr %20, i64 0
  %22 = load i8, ptr %21, align 1, !tbaa !14
  %23 = zext i8 %22 to i32
  store i32 %23, ptr %11, align 4, !tbaa !15
  call void @llvm.lifetime.start.p0(i64 4, ptr %12) #10
  %24 = load ptr, ptr %10, align 8, !tbaa !10
  %25 = getelementptr inbounds i8, ptr %24, i64 1
  %26 = load i8, ptr %25, align 1, !tbaa !14
  %27 = zext i8 %26 to i32
  store i32 %27, ptr %12, align 4, !tbaa !15
  call void @llvm.lifetime.start.p0(i64 4, ptr %13) #10
  %28 = load ptr, ptr %10, align 8, !tbaa !10
  %29 = getelementptr inbounds i8, ptr %28, i64 2
  %30 = load i8, ptr %29, align 1, !tbaa !14
  %31 = zext i8 %30 to i32
  store i32 %31, ptr %13, align 4, !tbaa !15
  call void @llvm.lifetime.start.p0(i64 4, ptr %14) #10
  %32 = load ptr, ptr %10, align 8, !tbaa !10
  %33 = getelementptr inbounds i8, ptr %32, i64 3
  %34 = load i8, ptr %33, align 1, !tbaa !14
  %35 = zext i8 %34 to i32
  store i32 %35, ptr %14, align 4, !tbaa !15
  call void @llvm.lifetime.start.p0(i64 4, ptr %15) #10
  %36 = load ptr, ptr %10, align 8, !tbaa !10
  %37 = getelementptr inbounds i8, ptr %36, i64 4
  %38 = load i8, ptr %37, align 1, !tbaa !14
  %39 = zext i8 %38 to i32
  store i32 %39, ptr %15, align 4, !tbaa !15
  call void @llvm.lifetime.start.p0(i64 4, ptr %16) #10
  %40 = load ptr, ptr %10, align 8, !tbaa !10
  %41 = getelementptr inbounds i8, ptr %40, i64 5
  %42 = load i8, ptr %41, align 1, !tbaa !14
  %43 = zext i8 %42 to i32
  store i32 %43, ptr %16, align 4, !tbaa !15
  call void @llvm.lifetime.start.p0(i64 4, ptr %17) #10
  %44 = load ptr, ptr %10, align 8, !tbaa !10
  %45 = getelementptr inbounds i8, ptr %44, i64 6
  %46 = load i8, ptr %45, align 1, !tbaa !14
  %47 = zext i8 %46 to i32
  store i32 %47, ptr %17, align 4, !tbaa !15
  %48 = load i64, ptr %6, align 8, !tbaa !12
  %49 = udiv i64 %48, 1
  store i64 %49, ptr %6, align 8, !tbaa !12
  %50 = load i32, ptr %11, align 4, !tbaa !15
  %51 = load i32, ptr %12, align 4, !tbaa !15
  %52 = add nsw i32 %50, %51
  %53 = add nsw i32 %52, 1
  %54 = ashr i32 %53, 1
  %55 = trunc i32 %54 to i8
  %56 = load ptr, ptr %9, align 8, !tbaa !10
  %57 = load i64, ptr %6, align 8, !tbaa !12
  %58 = mul nsw i64 0, %57
  %59 = add nsw i64 0, %58
  %60 = getelementptr inbounds i8, ptr %56, i64 %59
  store i8 %55, ptr %60, align 1, !tbaa !14
  %61 = load i32, ptr %11, align 4, !tbaa !15
  %62 = load i32, ptr %12, align 4, !tbaa !15
  %63 = mul nsw i32 %62, 2
  %64 = add nsw i32 %61, %63
  %65 = load i32, ptr %13, align 4, !tbaa !15
  %66 = add nsw i32 %64, %65
  %67 = add nsw i32 %66, 2
  %68 = ashr i32 %67, 2
  %69 = trunc i32 %68 to i8
  %70 = load ptr, ptr %9, align 8, !tbaa !10
  %71 = load i64, ptr %6, align 8, !tbaa !12
  %72 = mul nsw i64 1, %71
  %73 = add nsw i64 0, %72
  %74 = getelementptr inbounds i8, ptr %70, i64 %73
  store i8 %69, ptr %74, align 1, !tbaa !14
  %75 = load i32, ptr %12, align 4, !tbaa !15
  %76 = load i32, ptr %13, align 4, !tbaa !15
  %77 = add nsw i32 %75, %76
  %78 = add nsw i32 %77, 1
  %79 = ashr i32 %78, 1
  %80 = trunc i32 %79 to i8
  %81 = load ptr, ptr %9, align 8, !tbaa !10
  %82 = load i64, ptr %6, align 8, !tbaa !12
  %83 = mul nsw i64 2, %82
  %84 = add nsw i64 0, %83
  %85 = getelementptr inbounds i8, ptr %81, i64 %84
  store i8 %80, ptr %85, align 1, !tbaa !14
  %86 = load ptr, ptr %9, align 8, !tbaa !10
  %87 = load i64, ptr %6, align 8, !tbaa !12
  %88 = mul nsw i64 0, %87
  %89 = add nsw i64 1, %88
  %90 = getelementptr inbounds i8, ptr %86, i64 %89
  store i8 %80, ptr %90, align 1, !tbaa !14
  %91 = load i32, ptr %12, align 4, !tbaa !15
  %92 = load i32, ptr %13, align 4, !tbaa !15
  %93 = mul nsw i32 %92, 2
  %94 = add nsw i32 %91, %93
  %95 = load i32, ptr %14, align 4, !tbaa !15
  %96 = add nsw i32 %94, %95
  %97 = add nsw i32 %96, 2
  %98 = ashr i32 %97, 2
  %99 = trunc i32 %98 to i8
  %100 = load ptr, ptr %9, align 8, !tbaa !10
  %101 = load i64, ptr %6, align 8, !tbaa !12
  %102 = mul nsw i64 3, %101
  %103 = add nsw i64 0, %102
  %104 = getelementptr inbounds i8, ptr %100, i64 %103
  store i8 %99, ptr %104, align 1, !tbaa !14
  %105 = load ptr, ptr %9, align 8, !tbaa !10
  %106 = load i64, ptr %6, align 8, !tbaa !12
  %107 = mul nsw i64 1, %106
  %108 = add nsw i64 1, %107
  %109 = getelementptr inbounds i8, ptr %105, i64 %108
  store i8 %99, ptr %109, align 1, !tbaa !14
  %110 = load i32, ptr %13, align 4, !tbaa !15
  %111 = load i32, ptr %14, align 4, !tbaa !15
  %112 = add nsw i32 %110, %111
  %113 = add nsw i32 %112, 1
  %114 = ashr i32 %113, 1
  %115 = trunc i32 %114 to i8
  %116 = load ptr, ptr %9, align 8, !tbaa !10
  %117 = load i64, ptr %6, align 8, !tbaa !12
  %118 = mul nsw i64 2, %117
  %119 = add nsw i64 1, %118
  %120 = getelementptr inbounds i8, ptr %116, i64 %119
  store i8 %115, ptr %120, align 1, !tbaa !14
  %121 = load ptr, ptr %9, align 8, !tbaa !10
  %122 = load i64, ptr %6, align 8, !tbaa !12
  %123 = mul nsw i64 0, %122
  %124 = add nsw i64 2, %123
  %125 = getelementptr inbounds i8, ptr %121, i64 %124
  store i8 %115, ptr %125, align 1, !tbaa !14
  %126 = load i32, ptr %13, align 4, !tbaa !15
  %127 = load i32, ptr %14, align 4, !tbaa !15
  %128 = mul nsw i32 %127, 2
  %129 = add nsw i32 %126, %128
  %130 = load i32, ptr %15, align 4, !tbaa !15
  %131 = add nsw i32 %129, %130
  %132 = add nsw i32 %131, 2
  %133 = ashr i32 %132, 2
  %134 = trunc i32 %133 to i8
  %135 = load ptr, ptr %9, align 8, !tbaa !10
  %136 = load i64, ptr %6, align 8, !tbaa !12
  %137 = mul nsw i64 3, %136
  %138 = add nsw i64 1, %137
  %139 = getelementptr inbounds i8, ptr %135, i64 %138
  store i8 %134, ptr %139, align 1, !tbaa !14
  %140 = load ptr, ptr %9, align 8, !tbaa !10
  %141 = load i64, ptr %6, align 8, !tbaa !12
  %142 = mul nsw i64 1, %141
  %143 = add nsw i64 2, %142
  %144 = getelementptr inbounds i8, ptr %140, i64 %143
  store i8 %134, ptr %144, align 1, !tbaa !14
  %145 = load i32, ptr %14, align 4, !tbaa !15
  %146 = load i32, ptr %15, align 4, !tbaa !15
  %147 = add nsw i32 %145, %146
  %148 = add nsw i32 %147, 1
  %149 = ashr i32 %148, 1
  %150 = trunc i32 %149 to i8
  %151 = load ptr, ptr %9, align 8, !tbaa !10
  %152 = load i64, ptr %6, align 8, !tbaa !12
  %153 = mul nsw i64 2, %152
  %154 = add nsw i64 2, %153
  %155 = getelementptr inbounds i8, ptr %151, i64 %154
  store i8 %150, ptr %155, align 1, !tbaa !14
  %156 = load ptr, ptr %9, align 8, !tbaa !10
  %157 = load i64, ptr %6, align 8, !tbaa !12
  %158 = mul nsw i64 0, %157
  %159 = add nsw i64 3, %158
  %160 = getelementptr inbounds i8, ptr %156, i64 %159
  store i8 %150, ptr %160, align 1, !tbaa !14
  %161 = load i32, ptr %14, align 4, !tbaa !15
  %162 = load i32, ptr %15, align 4, !tbaa !15
  %163 = mul nsw i32 %162, 2
  %164 = add nsw i32 %161, %163
  %165 = load i32, ptr %16, align 4, !tbaa !15
  %166 = add nsw i32 %164, %165
  %167 = add nsw i32 %166, 2
  %168 = ashr i32 %167, 2
  %169 = trunc i32 %168 to i8
  %170 = load ptr, ptr %9, align 8, !tbaa !10
  %171 = load i64, ptr %6, align 8, !tbaa !12
  %172 = mul nsw i64 3, %171
  %173 = add nsw i64 2, %172
  %174 = getelementptr inbounds i8, ptr %170, i64 %173
  store i8 %169, ptr %174, align 1, !tbaa !14
  %175 = load ptr, ptr %9, align 8, !tbaa !10
  %176 = load i64, ptr %6, align 8, !tbaa !12
  %177 = mul nsw i64 1, %176
  %178 = add nsw i64 3, %177
  %179 = getelementptr inbounds i8, ptr %175, i64 %178
  store i8 %169, ptr %179, align 1, !tbaa !14
  %180 = load i32, ptr %15, align 4, !tbaa !15
  %181 = load i32, ptr %16, align 4, !tbaa !15
  %182 = add nsw i32 %180, %181
  %183 = add nsw i32 %182, 1
  %184 = ashr i32 %183, 1
  %185 = trunc i32 %184 to i8
  %186 = load ptr, ptr %9, align 8, !tbaa !10
  %187 = load i64, ptr %6, align 8, !tbaa !12
  %188 = mul nsw i64 2, %187
  %189 = add nsw i64 3, %188
  %190 = getelementptr inbounds i8, ptr %186, i64 %189
  store i8 %185, ptr %190, align 1, !tbaa !14
  %191 = load i32, ptr %15, align 4, !tbaa !15
  %192 = load i32, ptr %16, align 4, !tbaa !15
  %193 = mul nsw i32 %192, 2
  %194 = add nsw i32 %191, %193
  %195 = load i32, ptr %17, align 4, !tbaa !15
  %196 = add nsw i32 %194, %195
  %197 = add nsw i32 %196, 2
  %198 = ashr i32 %197, 2
  %199 = trunc i32 %198 to i8
  %200 = load ptr, ptr %9, align 8, !tbaa !10
  %201 = load i64, ptr %6, align 8, !tbaa !12
  %202 = mul nsw i64 3, %201
  %203 = add nsw i64 3, %202
  %204 = getelementptr inbounds i8, ptr %200, i64 %203
  store i8 %199, ptr %204, align 1, !tbaa !14
  call void @llvm.lifetime.end.p0(i64 4, ptr %17) #10
  call void @llvm.lifetime.end.p0(i64 4, ptr %16) #10
  call void @llvm.lifetime.end.p0(i64 4, ptr %15) #10
  call void @llvm.lifetime.end.p0(i64 4, ptr %14) #10
  call void @llvm.lifetime.end.p0(i64 4, ptr %13) #10
  call void @llvm.lifetime.end.p0(i64 4, ptr %12) #10
  call void @llvm.lifetime.end.p0(i64 4, ptr %11) #10
  call void @llvm.lifetime.end.p0(i64 8, ptr %10) #10
  call void @llvm.lifetime.end.p0(i64 8, ptr %9) #10
  ret void
}