; Function Attrs: mustprogress nofree norecurse nosync nounwind willreturn memory(argmem: readwrite) uwtable
define internal void @vert_left_4x4_c(ptr noundef writeonly captures(none) initializes((0, 4)) %0, i64 noundef %1, ptr readnone captures(none) %2, ptr noundef readonly captures(none) %3) #1 {
  %5 = load i8, ptr %3, align 1, !tbaa !8
  %6 = zext i8 %5 to i32
  %7 = getelementptr inbounds nuw i8, ptr %3, i64 1
  %8 = load i8, ptr %7, align 1, !tbaa !8
  %9 = zext i8 %8 to i32
  %10 = getelementptr inbounds nuw i8, ptr %3, i64 2
  %11 = load i8, ptr %10, align 1, !tbaa !8
  %12 = zext i8 %11 to i32
  %13 = getelementptr inbounds nuw i8, ptr %3, i64 3
  %14 = load i8, ptr %13, align 1, !tbaa !8
  %15 = zext i8 %14 to i32
  %16 = getelementptr inbounds nuw i8, ptr %3, i64 4
  %17 = load i8, ptr %16, align 1, !tbaa !8
  %18 = zext i8 %17 to i32
  %19 = getelementptr inbounds nuw i8, ptr %3, i64 5
  %20 = load i8, ptr %19, align 1, !tbaa !8
  %21 = zext i8 %20 to i32
  %22 = getelementptr inbounds nuw i8, ptr %3, i64 6
  %23 = load i8, ptr %22, align 1, !tbaa !8
  %24 = zext i8 %23 to i32
  %25 = add nuw nsw i32 %9, 1
  %26 = add nuw nsw i32 %25, %6
  %27 = lshr i32 %26, 1
  %28 = trunc nuw i32 %27 to i8
  store i8 %28, ptr %0, align 1, !tbaa !8
  %29 = shl nuw nsw i32 %9, 1
  %30 = add nuw nsw i32 %12, 2
  %31 = add nuw nsw i32 %30, %6
  %32 = add nuw nsw i32 %31, %29
  %33 = lshr i32 %32, 2
  %34 = trunc nuw i32 %33 to i8
  %35 = getelementptr inbounds i8, ptr %0, i64 %1
  store i8 %34, ptr %35, align 1, !tbaa !8
  %36 = add nuw nsw i32 %25, %12
  %37 = lshr i32 %36, 1
  %38 = trunc nuw i32 %37 to i8
  %39 = shl nsw i64 %1, 1
  %40 = getelementptr inbounds i8, ptr %0, i64 %39
  store i8 %38, ptr %40, align 1, !tbaa !8
  %41 = getelementptr inbounds nuw i8, ptr %0, i64 1
  store i8 %38, ptr %41, align 1, !tbaa !8
  %42 = shl nuw nsw i32 %12, 1
  %43 = add nuw nsw i32 %15, 2
  %44 = add nuw nsw i32 %43, %9
  %45 = add nuw nsw i32 %44, %42
  %46 = lshr i32 %45, 2
  %47 = trunc nuw i32 %46 to i8
  %48 = mul nsw i64 %1, 3
  %49 = getelementptr inbounds i8, ptr %0, i64 %48
  store i8 %47, ptr %49, align 1, !tbaa !8
  %50 = getelementptr i8, ptr %35, i64 1
  store i8 %47, ptr %50, align 1, !tbaa !8
  %51 = add nuw nsw i32 %12, 1
  %52 = add nuw nsw i32 %51, %15
  %53 = lshr i32 %52, 1
  %54 = trunc nuw i32 %53 to i8
  %55 = getelementptr i8, ptr %40, i64 1
  store i8 %54, ptr %55, align 1, !tbaa !8
  %56 = getelementptr inbounds nuw i8, ptr %0, i64 2
  store i8 %54, ptr %56, align 1, !tbaa !8
  %57 = shl nuw nsw i32 %15, 1
  %58 = add nuw nsw i32 %30, %57
  %59 = add nuw nsw i32 %58, %18
  %60 = lshr i32 %59, 2
  %61 = trunc nuw i32 %60 to i8
  %62 = getelementptr i8, ptr %49, i64 1
  store i8 %61, ptr %62, align 1, !tbaa !8
  %63 = getelementptr i8, ptr %35, i64 2
  store i8 %61, ptr %63, align 1, !tbaa !8
  %64 = add nuw nsw i32 %15, 1
  %65 = add nuw nsw i32 %64, %18
  %66 = lshr i32 %65, 1
  %67 = trunc nuw i32 %66 to i8
  %68 = getelementptr i8, ptr %40, i64 2
  store i8 %67, ptr %68, align 1, !tbaa !8
  %69 = getelementptr inbounds nuw i8, ptr %0, i64 3
  store i8 %67, ptr %69, align 1, !tbaa !8
  %70 = shl nuw nsw i32 %18, 1
  %71 = add nuw nsw i32 %43, %70
  %72 = add nuw nsw i32 %71, %21
  %73 = lshr i32 %72, 2
  %74 = trunc nuw i32 %73 to i8
  %75 = getelementptr i8, ptr %49, i64 2
  store i8 %74, ptr %75, align 1, !tbaa !8
  %76 = getelementptr i8, ptr %35, i64 3
  store i8 %74, ptr %76, align 1, !tbaa !8
  %77 = add nuw nsw i32 %18, 1
  %78 = add nuw nsw i32 %77, %21
  %79 = lshr i32 %78, 1
  %80 = trunc nuw i32 %79 to i8
  %81 = getelementptr i8, ptr %40, i64 3
  store i8 %80, ptr %81, align 1, !tbaa !8
  %82 = shl nuw nsw i32 %21, 1
  %83 = add nuw nsw i32 %18, 2
  %84 = add nuw nsw i32 %83, %82
  %85 = add nuw nsw i32 %84, %24
  %86 = lshr i32 %85, 2
  %87 = trunc nuw i32 %86 to i8
  %88 = getelementptr i8, ptr %49, i64 3
  store i8 %87, ptr %88, align 1, !tbaa !8
  ret void
}